; ModuleID = 'source-C-CXX/38/1710.c'
source_filename = "source-C-CXX/38/1710.c"
target datalayout = "e-m:e-p270:32:32-p271:32:32-p272:64:64-i64:64-f80:128-n8:16:32:64-S128"
target triple = "x86_64-pc-linux-gnu"

%struct.student = type { [20 x i8], i32, i32, i8, i8, i32 }

@.str = private unnamed_addr constant [4 x i8] c"%d\0A\00", align 1
@.str.1 = private unnamed_addr constant [18 x i8] c"%s %d %d %c %c %d\00", align 1
@.str.2 = private unnamed_addr constant [10 x i8] c"%s\0A%d\0A%ld\00", align 1

; Function Attrs: nofree nounwind sspstrong uwtable
define dso_local void @main() local_unnamed_addr #0 {
  %1 = alloca [100 x %struct.student], align 16
  %2 = alloca i32, align 4
  %3 = getelementptr inbounds [100 x %struct.student], [100 x %struct.student]* %1, i64 0, i64 0, i32 0, i64 0
  call void @llvm.lifetime.start.p0i8(i64 3600, i8* nonnull %3) #3
  %4 = bitcast i32* %2 to i8*
  call void @llvm.lifetime.start.p0i8(i64 4, i8* nonnull %4) #3
  %5 = call i32 (i8*, ...) @__isoc99_scanf(i8* getelementptr inbounds ([4 x i8], [4 x i8]* @.str, i64 0, i64 0), i32* nonnull %2)
  %6 = load i32, i32* %2, align 4, !tbaa !5
  %7 = icmp sgt i32 %6, 0
  br i1 %7, label %12, label %76

8:                                                ; preds = %12
  %9 = icmp sgt i32 %22, 0
  br i1 %9, label %10, label %76

10:                                               ; preds = %8
  %11 = zext i32 %22 to i64
  br label %25

12:                                               ; preds = %0, %12
  %13 = phi i64 [ %21, %12 ], [ 0, %0 ]
  %14 = getelementptr inbounds [100 x %struct.student], [100 x %struct.student]* %1, i64 0, i64 %13, i32 0
  %15 = getelementptr inbounds [100 x %struct.student], [100 x %struct.student]* %1, i64 0, i64 %13, i32 1
  %16 = getelementptr inbounds [100 x %struct.student], [100 x %struct.student]* %1, i64 0, i64 %13, i32 2
  %17 = getelementptr inbounds [100 x %struct.student], [100 x %struct.student]* %1, i64 0, i64 %13, i32 3
  %18 = getelementptr inbounds [100 x %struct.student], [100 x %struct.student]* %1, i64 0, i64 %13, i32 4
  %19 = getelementptr inbounds [100 x %struct.student], [100 x %struct.student]* %1, i64 0, i64 %13, i32 5
  %20 = call i32 (i8*, ...) @__isoc99_scanf(i8* getelementptr inbounds ([18 x i8], [18 x i8]* @.str.1, i64 0, i64 0), [20 x i8]* nonnull %14, i32* nonnull %15, i32* nonnull %16, i8* nonnull %17, i8* nonnull %18, i32* nonnull %19)
  %21 = add nuw nsw i64 %13, 1
  %22 = load i32, i32* %2, align 4, !tbaa !5
  %23 = sext i32 %22 to i64
  %24 = icmp slt i64 %21, %23
  br i1 %24, label %12, label %8, !llvm.loop !9

25:                                               ; preds = %10, %64
  %26 = phi i64 [ 0, %10 ], [ %72, %64 ]
  %27 = phi i64 [ 0, %10 ], [ %67, %64 ]
  %28 = phi i32 [ 0, %10 ], [ %71, %64 ]
  %29 = phi i32 [ undef, %10 ], [ %70, %64 ]
  %30 = getelementptr inbounds [100 x %struct.student], [100 x %struct.student]* %1, i64 0, i64 %26, i32 1
  %31 = load i32, i32* %30, align 4, !tbaa !11
  %32 = icmp sgt i32 %31, 80
  br i1 %32, label %33, label %53

33:                                               ; preds = %25
  %34 = getelementptr inbounds [100 x %struct.student], [100 x %struct.student]* %1, i64 0, i64 %26, i32 5
  %35 = load i32, i32* %34, align 4, !tbaa !13
  %36 = icmp sgt i32 %35, 0
  %37 = select i1 %36, i32 8000, i32 0
  %38 = icmp sgt i32 %31, 85
  br i1 %38, label %39, label %53

39:                                               ; preds = %33
  %40 = getelementptr inbounds [100 x %struct.student], [100 x %struct.student]* %1, i64 0, i64 %26, i32 2
  %41 = load i32, i32* %40, align 4, !tbaa !14
  %42 = icmp sgt i32 %41, 80
  %43 = add nuw nsw i32 %37, 4000
  %44 = select i1 %42, i32 %43, i32 %37
  %45 = icmp sgt i32 %31, 90
  %46 = add nuw nsw i32 %44, 2000
  %47 = select i1 %45, i32 %46, i32 %44
  %48 = getelementptr inbounds [100 x %struct.student], [100 x %struct.student]* %1, i64 0, i64 %26, i32 4
  %49 = load i8, i8* %48, align 1, !tbaa !15
  %50 = icmp eq i8 %49, 89
  %51 = add nuw nsw i32 %47, 1000
  %52 = select i1 %50, i32 %51, i32 %47
  br label %53

53:                                               ; preds = %25, %33, %39
  %54 = phi i32 [ %52, %39 ], [ %37, %33 ], [ 0, %25 ]
  %55 = getelementptr inbounds [100 x %struct.student], [100 x %struct.student]* %1, i64 0, i64 %26, i32 2
  %56 = load i32, i32* %55, align 4, !tbaa !14
  %57 = icmp sgt i32 %56, 80
  br i1 %57, label %58, label %64

58:                                               ; preds = %53
  %59 = getelementptr inbounds [100 x %struct.student], [100 x %struct.student]* %1, i64 0, i64 %26, i32 3
  %60 = load i8, i8* %59, align 4, !tbaa !16
  %61 = icmp eq i8 %60, 89
  %62 = add nuw nsw i32 %54, 850
  %63 = select i1 %61, i32 %62, i32 %54
  br label %64

64:                                               ; preds = %58, %53
  %65 = phi i32 [ %54, %53 ], [ %63, %58 ]
  %66 = zext i32 %65 to i64
  %67 = add nuw nsw i64 %27, %66
  %68 = icmp sgt i32 %65, %28
  %69 = trunc i64 %26 to i32
  %70 = select i1 %68, i32 %69, i32 %29
  %71 = select i1 %68, i32 %65, i32 %28
  %72 = add nuw nsw i64 %26, 1
  %73 = icmp eq i64 %72, %11
  br i1 %73, label %74, label %25, !llvm.loop !17

74:                                               ; preds = %64
  %75 = sext i32 %70 to i64
  br label %76

76:                                               ; preds = %0, %74, %8
  %77 = phi i64 [ 0, %8 ], [ %75, %74 ], [ 0, %0 ]
  %78 = phi i32 [ 0, %8 ], [ %71, %74 ], [ 0, %0 ]
  %79 = phi i64 [ 0, %8 ], [ %67, %74 ], [ 0, %0 ]
  %80 = getelementptr inbounds [100 x %struct.student], [100 x %struct.student]* %1, i64 0, i64 %77, i32 0, i64 0
  %81 = call i32 (i8*, ...) @printf(i8* nonnull dereferenceable(1) getelementptr inbounds ([10 x i8], [10 x i8]* @.str.2, i64 0, i64 0), i8* nonnull %80, i32 %78, i64 %79)
  call void @llvm.lifetime.end.p0i8(i64 4, i8* nonnull %4) #3
  call void @llvm.lifetime.end.p0i8(i64 3600, i8* nonnull %3) #3
  ret void
}

; Function Attrs: argmemonly mustprogress nofree nosync nounwind willreturn
declare void @llvm.lifetime.start.p0i8(i64 immarg, i8* nocapture) #1

; Function Attrs: nofree nounwind
declare noundef i32 @__isoc99_scanf(i8* nocapture noundef readonly, ...) local_unnamed_addr #2

; Function Attrs: nofree nounwind
declare noundef i32 @printf(i8* nocapture noundef readonly, ...) local_unnamed_addr #2

; Function Attrs: argmemonly mustprogress nofree nosync nounwind willreturn
declare void @llvm.lifetime.end.p0i8(i64 immarg, i8* nocapture) #1


!llvm.module.flags = !{!0, !1, !2, !3}
!llvm.ident = !{!4}

!0 = !{i32 1, !"wchar_size", i32 4}
!1 = !{i32 7, !"PIC Level", i32 2}
!2 = !{i32 7, !"PIE Level", i32 2}
!3 = !{i32 7, !"uwtable", i32 1}
!4 = !{!"clang version 13.0.0"}
!5 = !{!6, !6, i64 0}
!6 = !{!"int", !7, i64 0}
!7 = !{!"omnipotent char", !8, i64 0}
!8 = !{!"Simple C/C++ TBAA"}
!9 = distinct !{!9, !10}
!10 = !{!"llvm.loop.mustprogress"}
!11 = !{!12, !6, i64 20}
!12 = !{!"student", !7, i64 0, !6, i64 20, !6, i64 24, !7, i64 28, !7, i64 29, !6, i64 32}
!13 = !{!12, !6, i64 32}
!14 = !{!12, !6, i64 24}
!15 = !{!12, !7, i64 29}
!16 = !{!12, !7, i64 28}
!17 = distinct !{!17, !10}
